target datalayout = "e-m:e-p270:32:32-p271:32:32-p272:64:64-i64:64-i128:128-f80:128-n8:16:32:64-S128"
target triple = "x86_64-pc-linux-gnu"

@s_Truths6 = internal global [6 x i64] [i64 -6148914691236517206, i64 -3689348814741910324, i64 -1085102592571150096, i64 -71777214294589696, i64 -281470681808896, i64 -4294967296], align 16
@s_Truths6Neg = internal global [6 x i64] [i64 6148914691236517205, i64 3689348814741910323, i64 1085102592571150095, i64 71777214294589695, i64 281470681808895, i64 4294967295], align 16

; Function Attrs: inlinehint nounwind uwtable
define internal i64 @Abc_Tt6Cofactor1(i64 noundef %0, i32 noundef %1) #2 {
  %3 = alloca i64, align 8
  %4 = alloca i32, align 4
  store i64 %0, ptr %3, align 8, !tbaa !33
  store i32 %1, ptr %4, align 4, !tbaa !8
  %5 = load i64, ptr %3, align 8, !tbaa !33
  %6 = load i32, ptr %4, align 4, !tbaa !8
  %7 = sext i32 %6 to i64
  %8 = getelementptr inbounds [6 x i64], ptr @s_Truths6, i64 0, i64 %7
  %9 = load i64, ptr %8, align 8, !tbaa !33
  %10 = and i64 %5, %9
  %11 = load i64, ptr %3, align 8, !tbaa !33
  %12 = load i32, ptr %4, align 4, !tbaa !8
  %13 = sext i32 %12 to i64
  %14 = getelementptr inbounds [6 x i64], ptr @s_Truths6, i64 0, i64 %13
  %15 = load i64, ptr %14, align 8, !tbaa !33
  %16 = and i64 %11, %15
  %17 = load i32, ptr %4, align 4, !tbaa !8
  %18 = shl i32 1, %17
  %19 = zext i32 %18 to i64
  %20 = lshr i64 %16, %19
  %21 = or i64 %10, %20
  ret i64 %21
}

; Function Attrs: inlinehint nounwind uwtable
define internal i64 @Abc_Tt6Cofactor0(i64 noundef %0, i32 noundef %1) #2 {
  %3 = alloca i64, align 8
  %4 = alloca i32, align 4
  store i64 %0, ptr %3, align 8, !tbaa !33
  store i32 %1, ptr %4, align 4, !tbaa !8
  %5 = load i64, ptr %3, align 8, !tbaa !33
  %6 = load i32, ptr %4, align 4, !tbaa !8
  %7 = sext i32 %6 to i64
  %8 = getelementptr inbounds [6 x i64], ptr @s_Truths6Neg, i64 0, i64 %7
  %9 = load i64, ptr %8, align 8, !tbaa !33
  %10 = and i64 %5, %9
  %11 = load i64, ptr %3, align 8, !tbaa !33
  %12 = load i32, ptr %4, align 4, !tbaa !8
  %13 = sext i32 %12 to i64
  %14 = getelementptr inbounds [6 x i64], ptr @s_Truths6Neg, i64 0, i64 %13
  %15 = load i64, ptr %14, align 8, !tbaa !33
  %16 = and i64 %11, %15
  %17 = load i32, ptr %4, align 4, !tbaa !8
  %18 = shl i32 1, %17
  %19 = zext i32 %18 to i64
  %20 = shl i64 %16, %19
  %21 = or i64 %10, %20
  ret i64 %21
}

; Function Attrs: inlinehint nounwind uwtable
define internal i32 @Abc_Tt6HasVar(i64 noundef %0, i32 noundef %1) #2 {
  %3 = alloca i64, align 8
  %4 = alloca i32, align 4
  store i64 %0, ptr %3, align 8, !tbaa !33
  store i32 %1, ptr %4, align 4, !tbaa !8
  %5 = load i64, ptr %3, align 8, !tbaa !33
  %6 = load i32, ptr %4, align 4, !tbaa !8
  %7 = shl i32 1, %6
  %8 = zext i32 %7 to i64
  %9 = lshr i64 %5, %8
  %10 = load i32, ptr %4, align 4, !tbaa !8
  %11 = sext i32 %10 to i64
  %12 = getelementptr inbounds [6 x i64], ptr @s_Truths6Neg, i64 0, i64 %11
  %13 = load i64, ptr %12, align 8, !tbaa !33
  %14 = and i64 %9, %13
  %15 = load i64, ptr %3, align 8, !tbaa !33
  %16 = load i32, ptr %4, align 4, !tbaa !8
  %17 = sext i32 %16 to i64
  %18 = getelementptr inbounds [6 x i64], ptr @s_Truths6Neg, i64 0, i64 %17
  %19 = load i64, ptr %18, align 8, !tbaa !33
  %20 = and i64 %15, %19
  %21 = icmp ne i64 %14, %20
  %22 = zext i1 %21 to i32
  ret i32 %22
}

; Function Attrs: nounwind uwtable
define i64 @Dau_Dsd6TruthCompose_rec(i64 noundef %0, ptr noundef %1, i32 noundef %2) #0 {
  %4 = alloca i64, align 8
  %5 = alloca i64, align 8
  %6 = alloca ptr, align 8
  %7 = alloca i32, align 4
  %8 = alloca i64, align 8
  %9 = alloca i64, align 8
  %10 = alloca i32, align 4
  store i64 %0, ptr %5, align 8, !tbaa !33
  store ptr %1, ptr %6, align 8, !tbaa !35
  store i32 %2, ptr %7, align 4, !tbaa !8
  call void @llvm.lifetime.start.p0(i64 8, ptr %8) #9
  call void @llvm.lifetime.start.p0(i64 8, ptr %9) #9
  %11 = load i64, ptr %5, align 8, !tbaa !33
  %12 = icmp eq i64 %11, 0
  br i1 %12, label %13, label %14

13:                                               ; preds = %3
  store i64 0, ptr %4, align 8
  store i32 1, ptr %10, align 4
  br label %76

14:                                               ; preds = %3
  %15 = load i64, ptr %5, align 8, !tbaa !33
  %16 = icmp eq i64 %15, -1
  br i1 %16, label %17, label %18

17:                                               ; preds = %14
  store i64 -1, ptr %4, align 8
  store i32 1, ptr %10, align 4
  br label %76

18:                                               ; preds = %14
  %19 = load i32, ptr %7, align 4, !tbaa !8
  %20 = add nsw i32 %19, -1
  store i32 %20, ptr %7, align 4, !tbaa !8
  %21 = icmp eq i32 %20, 0
  br i1 %21, label %22, label %37

22:                                               ; preds = %18
  %23 = load i64, ptr %5, align 8, !tbaa !33
  %24 = load i64, ptr @s_Truths6, align 16, !tbaa !33
  %25 = icmp eq i64 %23, %24
  br i1 %25, label %26, label %30

26:                                               ; preds = %22
  %27 = load ptr, ptr %6, align 8, !tbaa !35
  %28 = getelementptr inbounds i64, ptr %27, i64 0
  %29 = load i64, ptr %28, align 8, !tbaa !33
  br label %35

30:                                               ; preds = %22
  %31 = load ptr, ptr %6, align 8, !tbaa !35
  %32 = getelementptr inbounds i64, ptr %31, i64 0
  %33 = load i64, ptr %32, align 8, !tbaa !33
  %34 = xor i64 %33, -1
  br label %35

35:                                               ; preds = %30, %26
  %36 = phi i64 [ %29, %26 ], [ %34, %30 ]
  store i64 %36, ptr %4, align 8
  store i32 1, ptr %10, align 4
  br label %76

37:                                               ; preds = %18
  %38 = load i64, ptr %5, align 8, !tbaa !33
  %39 = load i32, ptr %7, align 4, !tbaa !8
  %40 = call i32 @Abc_Tt6HasVar(i64 noundef %38, i32 noundef %39)
  %41 = icmp ne i32 %40, 0
  br i1 %41, label %47, label %42

42:                                               ; preds = %37
  %43 = load i64, ptr %5, align 8, !tbaa !33
  %44 = load ptr, ptr %6, align 8, !tbaa !35
  %45 = load i32, ptr %7, align 4, !tbaa !8
  %46 = call i64 @Dau_Dsd6TruthCompose_rec(i64 noundef %43, ptr noundef %44, i32 noundef %45)
  store i64 %46, ptr %4, align 8
  store i32 1, ptr %10, align 4
  br label %76

47:                                               ; preds = %37
  %48 = load i64, ptr %5, align 8, !tbaa !33
  %49 = load i32, ptr %7, align 4, !tbaa !8
  %50 = call i64 @Abc_Tt6Cofactor0(i64 noundef %48, i32 noundef %49)
  %51 = load ptr, ptr %6, align 8, !tbaa !35
  %52 = load i32, ptr %7, align 4, !tbaa !8
  %53 = call i64 @Dau_Dsd6TruthCompose_rec(i64 noundef %50, ptr noundef %51, i32 noundef %52)
  store i64 %53, ptr %8, align 8, !tbaa !33
  %54 = load i64, ptr %5, align 8, !tbaa !33
  %55 = load i32, ptr %7, align 4, !tbaa !8
  %56 = call i64 @Abc_Tt6Cofactor1(i64 noundef %54, i32 noundef %55)
  %57 = load ptr, ptr %6, align 8, !tbaa !35
  %58 = load i32, ptr %7, align 4, !tbaa !8
  %59 = call i64 @Dau_Dsd6TruthCompose_rec(i64 noundef %56, ptr noundef %57, i32 noundef %58)
  store i64 %59, ptr %9, align 8, !tbaa !33
  %60 = load ptr, ptr %6, align 8, !tbaa !35
  %61 = load i32, ptr %7, align 4, !tbaa !8
  %62 = sext i32 %61 to i64
  %63 = getelementptr inbounds i64, ptr %60, i64 %62
  %64 = load i64, ptr %63, align 8, !tbaa !33
  %65 = xor i64 %64, -1
  %66 = load i64, ptr %8, align 8, !tbaa !33
  %67 = and i64 %65, %66
  %68 = load ptr, ptr %6, align 8, !tbaa !35
  %69 = load i32, ptr %7, align 4, !tbaa !8
  %70 = sext i32 %69 to i64
  %71 = getelementptr inbounds i64, ptr %68, i64 %70
  %72 = load i64, ptr %71, align 8, !tbaa !33
  %73 = load i64, ptr %9, align 8, !tbaa !33
  %74 = and i64 %72, %73
  %75 = or i64 %67, %74
  store i64 %75, ptr %4, align 8
  store i32 1, ptr %10, align 4
  br label %76

76:                                               ; preds = %47, %42, %35, %17, %13
  call void @llvm.lifetime.end.p0(i64 8, ptr %9) #9
  call void @llvm.lifetime.end.p0(i64 8, ptr %8) #9
  %77 = load i64, ptr %4, align 8
  ret i64 %77
}