; Function Attrs: nofree nosync nounwind memory(read, inaccessiblemem: none) uwtable
define i64 @Dau_Dsd6TruthCompose_rec(i64 noundef %0, ptr noundef %1, i32 noundef %2) local_unnamed_addr #10 {
  switch i64 %0, label %tailrecurse.preheader [
    i64 0, label %common.ret52
    i64 -1, label %common.ret52
  ]

tailrecurse.preheader:                            ; preds = %3
  %4 = sext i32 %2 to i64
  br label %tailrecurse

tailrecurse:                                      ; preds = %tailrecurse.preheader, %11
  %indvars.iv = phi i64 [ %4, %tailrecurse.preheader ], [ %indvars.iv.next, %11 ]
  %indvars.iv.next = add nsw i64 %indvars.iv, -1
  %5 = icmp eq i64 %indvars.iv.next, 0
  br i1 %5, label %6, label %11

6:                                                ; preds = %tailrecurse
  %7 = load i64, ptr @s_Truths6, align 16, !tbaa !29
  %8 = icmp ne i64 %0, %7
  %9 = load i64, ptr %1, align 8, !tbaa !29
  %10 = sext i1 %8 to i64
  %spec.select = xor i64 %9, %10
  br label %common.ret52

11:                                               ; preds = %tailrecurse
  %12 = trunc nsw i64 %indvars.iv.next to i32
  %13 = shl nuw i32 1, %12
  %14 = zext nneg i32 %13 to i64
  %15 = lshr i64 %0, %14
  %16 = getelementptr inbounds [6 x i64], ptr @s_Truths6Neg, i64 0, i64 %indvars.iv.next
  %17 = load i64, ptr %16, align 8, !tbaa !29
  %18 = xor i64 %15, %0
  %19 = and i64 %17, %18
  %.not27 = icmp eq i64 %19, 0
  br i1 %.not27, label %tailrecurse, label %20

common.ret52:                                     ; preds = %3, %6, %3, %20
  %common.ret52.op = phi i64 [ %36, %20 ], [ %0, %3 ], [ %spec.select, %6 ], [ %0, %3 ]
  ret i64 %common.ret52.op

20:                                               ; preds = %11
  %21 = and i64 %17, %0
  %22 = shl i64 %21, %14
  %23 = or i64 %22, %21
  %24 = tail call i64 @Dau_Dsd6TruthCompose_rec(i64 noundef %23, ptr noundef %1, i32 noundef %12)
  %25 = getelementptr inbounds [6 x i64], ptr @s_Truths6, i64 0, i64 %indvars.iv.next
  %26 = load i64, ptr %25, align 8, !tbaa !29
  %27 = and i64 %26, %0
  %28 = lshr i64 %27, %14
  %29 = or i64 %28, %27
  %30 = tail call i64 @Dau_Dsd6TruthCompose_rec(i64 noundef %29, ptr noundef %1, i32 noundef %12)
  %31 = getelementptr inbounds i64, ptr %1, i64 %indvars.iv.next
  %32 = load i64, ptr %31, align 8, !tbaa !29
  %33 = xor i64 %32, -1
  %34 = and i64 %24, %33
  %35 = and i64 %32, %30
  %36 = or i64 %34, %35
  br label %common.ret52
}